target datalayout = "e-m:e-p270:32:32-p271:32:32-p272:64:64-i64:64-i128:128-f80:128-n8:16:32:64-S128"
target triple = "x86_64-pc-linux-gnu"

%struct.nghttp2_session = type { %struct.nghttp2_map, %struct.nghttp2_outbound_queue, %struct.nghttp2_outbound_queue, %struct.nghttp2_outbound_queue, [8 x %struct.anon], %struct.nghttp2_active_outbound_item, %struct.nghttp2_inbound_frame, %struct.nghttp2_hd_deflater, %struct.nghttp2_hd_inflater, %struct.nghttp2_session_callbacks, %struct.nghttp2_mem, ptr, ptr, %struct.nghttp2_ratelim, i64, i64, i64, i64, i64, i64, i64, i64, i64, i64, i64, i64, i64, i64, i32, i32, i32, i32, i32, i32, i32, i32, i32, i32, i32, i32, i8, %struct.nghttp2_settings_storage, %struct.nghttp2_settings_storage, i32, i32, i32, i8, i8, i8, i8, i8, i8, [32 x i8] }
%struct.nghttp2_map = type { ptr, ptr, i64, i64 }
%struct.nghttp2_outbound_queue = type { ptr, ptr, i64 }
%struct.anon = type { %struct.nghttp2_pq }
%struct.nghttp2_pq = type { ptr, ptr, i64, i64, ptr }
%struct.nghttp2_active_outbound_item = type { ptr, %struct.nghttp2_bufs, i32 }
%struct.nghttp2_bufs = type { ptr, ptr, ptr, i64, i64, i64, i64, i64 }
%struct.nghttp2_inbound_frame = type { %union.nghttp2_frame, %union.nghttp2_ext_frame_payload, ptr, %struct.nghttp2_buf, %struct.nghttp2_buf, ptr, i64, i64, i64, i64, i32, [32 x i8] }
%union.nghttp2_frame = type { %struct.nghttp2_headers }
%struct.nghttp2_headers = type { %struct.nghttp2_frame_hd, i64, %struct.nghttp2_priority_spec, ptr, i64, i32 }
%struct.nghttp2_frame_hd = type { i64, i32, i8, i8, i8 }
%struct.nghttp2_priority_spec = type { i32, i32, i8 }
%union.nghttp2_ext_frame_payload = type { %struct.nghttp2_ext_altsvc }
%struct.nghttp2_ext_altsvc = type { ptr, i64, ptr, i64 }
%struct.nghttp2_buf = type { ptr, ptr, ptr, ptr, ptr }
%struct.nghttp2_hd_deflater = type { %struct.nghttp2_hd_context, %struct.nghttp2_hd_map, i64, i64, i8 }
%struct.nghttp2_hd_context = type { %struct.nghttp2_hd_ringbuf, ptr, i64, i64, i32, i8 }
%struct.nghttp2_hd_ringbuf = type { ptr, i64, i64, i64 }
%struct.nghttp2_hd_map = type { [128 x ptr] }
%struct.nghttp2_hd_inflater = type { %struct.nghttp2_hd_context, %struct.nghttp2_hd_huff_decode_context, %struct.nghttp2_buf, %struct.nghttp2_buf, ptr, ptr, ptr, ptr, i64, i64, i64, i64, i64, i32, i32, i8, i8, i8 }
%struct.nghttp2_hd_huff_decode_context = type { i16 }
%struct.nghttp2_session_callbacks = type { ptr, ptr, ptr, ptr, ptr, ptr, ptr, ptr, ptr, ptr, ptr, ptr, ptr, ptr, ptr, ptr, ptr, ptr, ptr, ptr, ptr, ptr, ptr, ptr, ptr, ptr, ptr, ptr }
%struct.nghttp2_mem = type { ptr, ptr, ptr, ptr, ptr }
%struct.nghttp2_ratelim = type { i64, i64, i64, i64 }
%struct.nghttp2_settings_storage = type { i32, i32, i32, i32, i32, i32, i32, i32 }
%struct.nghttp2_stream = type { i32, %struct.nghttp2_pq_entry, i64, i64, i64, i64, ptr, ptr, ptr, i64, i32, i32, i32, i32, i32, i32, i32, i16, i32, i8, i8, i8, i8, i8, i8 }
%struct.nghttp2_pq_entry = type { i64 }

; Function Attrs: inlinehint nounwind uwtable
define internal i32 @nghttp2_max_int32(i32 noundef %0, i32 noundef %1) #3 {
  %3 = alloca i32, align 4
  %4 = alloca i32, align 4
  store i32 %0, ptr %3, align 4, !tbaa !8
  store i32 %1, ptr %4, align 4, !tbaa !8
  %5 = load i32, ptr %3, align 4, !tbaa !8
  %6 = load i32, ptr %4, align 4, !tbaa !8
  %7 = icmp slt i32 %5, %6
  br i1 %7, label %8, label %10

8:                                                ; preds = %2
  %9 = load i32, ptr %4, align 4, !tbaa !8
  br label %12

10:                                               ; preds = %2
  %11 = load i32, ptr %3, align 4, !tbaa !8
  br label %12

12:                                               ; preds = %10, %8
  %13 = phi i32 [ %9, %8 ], [ %11, %10 ]
  ret i32 %13
}

; Function Attrs: nounwind uwtable
define i32 @nghttp2_submit_window_update(ptr noundef %0, i8 noundef zeroext %1, i32 noundef %2, i32 noundef %3) #0 {
  %5 = alloca i32, align 4
  %6 = alloca ptr, align 8
  %7 = alloca i8, align 1
  %8 = alloca i32, align 4
  %9 = alloca i32, align 4
  %10 = alloca i32, align 4
  %11 = alloca ptr, align 8
  %12 = alloca i32, align 4
  store ptr %0, ptr %6, align 8, !tbaa !3
  store i8 %1, ptr %7, align 1, !tbaa !13
  store i32 %2, ptr %8, align 4, !tbaa !8
  store i32 %3, ptr %9, align 4, !tbaa !8
  call void @llvm.lifetime.start.p0(i64 4, ptr %10) #7
  call void @llvm.lifetime.start.p0(i64 8, ptr %11) #7
  store ptr null, ptr %11, align 8, !tbaa !47
  %13 = load i32, ptr %9, align 4, !tbaa !8
  %14 = icmp eq i32 %13, 0
  br i1 %14, label %15, label %16

15:                                               ; preds = %4
  store i32 0, ptr %5, align 4
  store i32 1, ptr %12, align 4
  br label %82

16:                                               ; preds = %4
  %17 = load i32, ptr %8, align 4, !tbaa !8
  %18 = icmp eq i32 %17, 0
  br i1 %18, label %19, label %32

19:                                               ; preds = %16
  %20 = load ptr, ptr %6, align 8, !tbaa !3
  %21 = getelementptr inbounds nuw %struct.nghttp2_session, ptr %20, i32 0, i32 39
  %22 = load ptr, ptr %6, align 8, !tbaa !3
  %23 = getelementptr inbounds nuw %struct.nghttp2_session, ptr %22, i32 0, i32 36
  %24 = load ptr, ptr %6, align 8, !tbaa !3
  %25 = getelementptr inbounds nuw %struct.nghttp2_session, ptr %24, i32 0, i32 38
  %26 = call i32 @nghttp2_adjust_local_window_size(ptr noundef %21, ptr noundef %23, ptr noundef %25, ptr noundef %9)
  store i32 %26, ptr %10, align 4, !tbaa !8
  %27 = load i32, ptr %10, align 4, !tbaa !8
  %28 = icmp ne i32 %27, 0
  br i1 %28, label %29, label %31

29:                                               ; preds = %19
  %30 = load i32, ptr %10, align 4, !tbaa !8
  store i32 %30, ptr %5, align 4
  store i32 1, ptr %12, align 4
  br label %82

31:                                               ; preds = %19
  br label %52

32:                                               ; preds = %16
  %33 = load ptr, ptr %6, align 8, !tbaa !3
  %34 = load i32, ptr %8, align 4, !tbaa !8
  %35 = call ptr @nghttp2_session_get_stream(ptr noundef %33, i32 noundef %34)
  store ptr %35, ptr %11, align 8, !tbaa !47
  %36 = load ptr, ptr %11, align 8, !tbaa !47
  %37 = icmp ne ptr %36, null
  br i1 %37, label %39, label %38

38:                                               ; preds = %32
  store i32 0, ptr %5, align 4
  store i32 1, ptr %12, align 4
  br label %82

39:                                               ; preds = %32
  %40 = load ptr, ptr %11, align 8, !tbaa !47
  %41 = getelementptr inbounds nuw %struct.nghttp2_stream, ptr %40, i32 0, i32 15
  %42 = load ptr, ptr %11, align 8, !tbaa !47
  %43 = getelementptr inbounds nuw %struct.nghttp2_stream, ptr %42, i32 0, i32 12
  %44 = load ptr, ptr %11, align 8, !tbaa !47
  %45 = getelementptr inbounds nuw %struct.nghttp2_stream, ptr %44, i32 0, i32 14
  %46 = call i32 @nghttp2_adjust_local_window_size(ptr noundef %41, ptr noundef %43, ptr noundef %45, ptr noundef %9)
  store i32 %46, ptr %10, align 4, !tbaa !8
  %47 = load i32, ptr %10, align 4, !tbaa !8
  %48 = icmp ne i32 %47, 0
  br i1 %48, label %49, label %51

49:                                               ; preds = %39
  %50 = load i32, ptr %10, align 4, !tbaa !8
  store i32 %50, ptr %5, align 4
  store i32 1, ptr %12, align 4
  br label %82

51:                                               ; preds = %39
  br label %52

52:                                               ; preds = %51, %31
  %53 = load i32, ptr %9, align 4, !tbaa !8
  %54 = icmp sgt i32 %53, 0
  br i1 %54, label %55, label %81

55:                                               ; preds = %52
  %56 = load i32, ptr %8, align 4, !tbaa !8
  %57 = icmp eq i32 %56, 0
  br i1 %57, label %58, label %67

58:                                               ; preds = %55
  %59 = load ptr, ptr %6, align 8, !tbaa !3
  %60 = getelementptr inbounds nuw %struct.nghttp2_session, ptr %59, i32 0, i32 37
  %61 = load i32, ptr %60, align 4, !tbaa !49
  %62 = load i32, ptr %9, align 4, !tbaa !8
  %63 = sub nsw i32 %61, %62
  %64 = call i32 @nghttp2_max_int32(i32 noundef 0, i32 noundef %63)
  %65 = load ptr, ptr %6, align 8, !tbaa !3
  %66 = getelementptr inbounds nuw %struct.nghttp2_session, ptr %65, i32 0, i32 37
  store i32 %64, ptr %66, align 4, !tbaa !49
  br label %76

67:                                               ; preds = %55
  %68 = load ptr, ptr %11, align 8, !tbaa !47
  %69 = getelementptr inbounds nuw %struct.nghttp2_stream, ptr %68, i32 0, i32 13
  %70 = load i32, ptr %69, align 4, !tbaa !50
  %71 = load i32, ptr %9, align 4, !tbaa !8
  %72 = sub nsw i32 %70, %71
  %73 = call i32 @nghttp2_max_int32(i32 noundef 0, i32 noundef %72)
  %74 = load ptr, ptr %11, align 8, !tbaa !47
  %75 = getelementptr inbounds nuw %struct.nghttp2_stream, ptr %74, i32 0, i32 13
  store i32 %73, ptr %75, align 4, !tbaa !50
  br label %76

76:                                               ; preds = %67, %58
  %77 = load ptr, ptr %6, align 8, !tbaa !3
  %78 = load i32, ptr %8, align 4, !tbaa !8
  %79 = load i32, ptr %9, align 4, !tbaa !8
  %80 = call i32 @nghttp2_session_add_window_update(ptr noundef %77, i8 noundef zeroext 0, i32 noundef %78, i32 noundef %79)
  store i32 %80, ptr %5, align 4
  store i32 1, ptr %12, align 4
  br label %82

81:                                               ; preds = %52
  store i32 0, ptr %5, align 4
  store i32 1, ptr %12, align 4
  br label %82

82:                                               ; preds = %81, %76, %49, %38, %29, %15
  call void @llvm.lifetime.end.p0(i64 8, ptr %11) #7
  call void @llvm.lifetime.end.p0(i64 4, ptr %10) #7
  %83 = load i32, ptr %5, align 4
  ret i32 %83
}