; Function Attrs: nounwind uwtable
define i32 @nghttp2_submit_window_update(ptr noundef %0, i8 noundef zeroext %1, i32 noundef %2, i32 noundef %3) local_unnamed_addr #0 {
  %5 = alloca i32, align 4
  store i32 %3, ptr %5, align 4, !tbaa !9
  %6 = icmp eq i32 %3, 0
  br i1 %6, label %39, label %7

7:                                                ; preds = %4
  %8 = icmp eq i32 %2, 0
  br i1 %8, label %9, label %14

9:                                                ; preds = %7
  %10 = getelementptr inbounds nuw i8, ptr %0, i64 2588
  %11 = getelementptr inbounds nuw i8, ptr %0, i64 2576
  %12 = getelementptr inbounds nuw i8, ptr %0, i64 2584
  %13 = call i32 @nghttp2_adjust_local_window_size(ptr noundef nonnull %10, ptr noundef nonnull %11, ptr noundef nonnull %12, ptr noundef nonnull %5) #8
  %.not28 = icmp eq i32 %13, 0
  br i1 %.not28, label %21, label %39

14:                                               ; preds = %7
  %15 = tail call ptr @nghttp2_session_get_stream(ptr noundef %0, i32 noundef %2) #8
  %.not = icmp eq ptr %15, null
  br i1 %.not, label %39, label %16

16:                                               ; preds = %14
  %17 = getelementptr inbounds nuw i8, ptr %15, i64 100
  %18 = getelementptr inbounds nuw i8, ptr %15, i64 88
  %19 = getelementptr inbounds nuw i8, ptr %15, i64 96
  %20 = call i32 @nghttp2_adjust_local_window_size(ptr noundef nonnull %17, ptr noundef nonnull %18, ptr noundef nonnull %19, ptr noundef nonnull %5) #8
  %.not27 = icmp eq i32 %20, 0
  br i1 %.not27, label %.thread, label %39

21:                                               ; preds = %9
  %22 = load i32, ptr %5, align 4, !tbaa !9
  %23 = icmp sgt i32 %22, 0
  br i1 %23, label %26, label %39

.thread:                                          ; preds = %16
  %24 = load i32, ptr %5, align 4, !tbaa !9
  %25 = icmp sgt i32 %24, 0
  br i1 %25, label %31, label %39

26:                                               ; preds = %21
  %27 = getelementptr inbounds nuw i8, ptr %0, i64 2580
  %28 = load i32, ptr %27, align 4, !tbaa !41
  %29 = sub nsw i32 %28, %22
  %30 = call range(i32 0, 2147483647) i32 @llvm.smax.i32(i32 range(i32 -2147483648, 2147483647) %29, i32 0)
  store i32 %30, ptr %27, align 4, !tbaa !41
  br label %36

31:                                               ; preds = %.thread
  %32 = getelementptr inbounds nuw i8, ptr %15, i64 92
  %33 = load i32, ptr %32, align 4, !tbaa !42
  %34 = sub nsw i32 %33, %24
  %35 = call range(i32 0, 2147483647) i32 @llvm.smax.i32(i32 range(i32 -2147483648, 2147483647) %34, i32 0)
  store i32 %35, ptr %32, align 4, !tbaa !42
  br label %36

36:                                               ; preds = %31, %26
  %37 = phi i32 [ %24, %31 ], [ %22, %26 ]
  %38 = call i32 @nghttp2_session_add_window_update(ptr noundef %0, i8 noundef zeroext 0, i32 noundef %2, i32 noundef %37) #8
  br label %39

39:                                               ; preds = %.thread, %21, %16, %14, %9, %4, %36
  %.021 = phi i32 [ %38, %36 ], [ 0, %4 ], [ %13, %9 ], [ 0, %14 ], [ %20, %16 ], [ 0, %21 ], [ 0, %.thread ]
  ret i32 %.021
}